; Function Attrs: mustprogress uwtable
define void @_Z36_gmx_sel_evaluate_subexpr_staticevalP18gmx_sel_evaluate_tRKSt10shared_ptrIN3gmx20SelectionTreeElementEEP15gmx_ana_index_t(ptr noundef %0, ptr nocapture noundef nonnull readonly align 8 dereferenceable(16) %1, ptr noundef %2) #2 {
  %4 = load ptr, ptr %1, align 8
  %5 = getelementptr inbounds i8, ptr %4, i64 48
  %6 = load i32, ptr %5, align 8
  %7 = icmp eq i32 %6, 0
  br i1 %7, label %8, label %26

8:                                                ; preds = %3
  %9 = getelementptr inbounds i8, ptr %4, i64 96
  %10 = load ptr, ptr %9, align 8
  %11 = getelementptr inbounds i8, ptr %10, i64 32
  %12 = load ptr, ptr %11, align 8
  tail call void %12(ptr noundef %0, ptr noundef nonnull align 8 dereferenceable(16) %9, ptr noundef %2)
  %13 = load ptr, ptr %1, align 8
  %14 = getelementptr inbounds i8, ptr %13, i64 96
  %15 = load ptr, ptr %14, align 8
  %16 = getelementptr inbounds i8, ptr %15, i64 12
  %17 = load i32, ptr %16, align 4
  %18 = getelementptr inbounds i8, ptr %13, i64 12
  store i32 %17, ptr %18, align 4
  %.not = icmp eq ptr %2, null
  %19 = load ptr, ptr %1, align 8
  %20 = getelementptr inbounds i8, ptr %19, i64 48
  br i1 %.not, label %21, label %22

21:                                               ; preds = %8
  store i32 -1, ptr %20, align 8
  br label %26

22:                                               ; preds = %8
  %23 = load i32, ptr %2, align 8
  %24 = getelementptr inbounds i8, ptr %2, i64 8
  %25 = load ptr, ptr %24, align 8
  tail call void @_Z17gmx_ana_index_setP15gmx_ana_index_tiPii(ptr noundef nonnull %20, i32 noundef %23, ptr noundef %25, i32 noundef 0)
  br label %26

26:                                               ; preds = %21, %22, %3
  ret void
}